target datalayout = "e-m:e-p270:32:32-p271:32:32-p272:64:64-i64:64-i128:128-f80:128-n8:16:32:64-S128"
target triple = "x86_64-pc-linux-gnu"

%struct._object = type { %union.anon, ptr }
%union.anon = type { i64 }
%struct.partialobject = type { %struct._object, ptr, ptr, ptr, ptr, ptr, ptr, i64, ptr }

; Function Attrs: inlinehint nounwind uwtable
define internal ptr @_Py_TYPE(ptr noundef %0) #3 {
  %2 = alloca ptr, align 8
  store ptr %0, ptr %2, align 8, !tbaa !4
  %3 = load ptr, ptr %2, align 8, !tbaa !4
  %4 = getelementptr inbounds nuw %struct._object, ptr %3, i32 0, i32 1
  %5 = load ptr, ptr %4, align 8, !tbaa !129
  ret ptr %5
}

; Function Attrs: nounwind uwtable
define internal i32 @partial_traverse(ptr noundef %0, ptr noundef %1, ptr noundef %2) #0 {
  %4 = alloca i32, align 4
  %5 = alloca ptr, align 8
  %6 = alloca ptr, align 8
  %7 = alloca ptr, align 8
  %8 = alloca ptr, align 8
  %9 = alloca i32, align 4
  %10 = alloca i32, align 4
  %11 = alloca i32, align 4
  %12 = alloca i32, align 4
  %13 = alloca i32, align 4
  %14 = alloca i32, align 4
  store ptr %0, ptr %5, align 8, !tbaa !4
  store ptr %1, ptr %6, align 8, !tbaa !9
  store ptr %2, ptr %7, align 8, !tbaa !9
  call void @llvm.lifetime.start.p0(i64 8, ptr %8) #8
  %15 = load ptr, ptr %5, align 8, !tbaa !4
  store ptr %15, ptr %8, align 8, !tbaa !9
  br label %16

16:                                               ; preds = %3
  %17 = load ptr, ptr %8, align 8, !tbaa !9
  %18 = call ptr @_Py_TYPE(ptr noundef %17)
  %19 = icmp ne ptr %18, null
  br i1 %19, label %20, label %34

20:                                               ; preds = %16
  call void @llvm.lifetime.start.p0(i64 4, ptr %9) #8
  %21 = load ptr, ptr %6, align 8, !tbaa !9
  %22 = load ptr, ptr %8, align 8, !tbaa !9
  %23 = call ptr @_Py_TYPE(ptr noundef %22)
  %24 = load ptr, ptr %7, align 8, !tbaa !9
  %25 = call i32 %21(ptr noundef %23, ptr noundef %24)
  store i32 %25, ptr %9, align 4, !tbaa !15
  %26 = load i32, ptr %9, align 4, !tbaa !15
  %27 = icmp ne i32 %26, 0
  br i1 %27, label %28, label %30

28:                                               ; preds = %20
  %29 = load i32, ptr %9, align 4, !tbaa !15
  store i32 %29, ptr %4, align 4
  store i32 1, ptr %10, align 4
  br label %31

30:                                               ; preds = %20
  store i32 0, ptr %10, align 4
  br label %31

31:                                               ; preds = %30, %28
  call void @llvm.lifetime.end.p0(i64 4, ptr %9) #8
  %32 = load i32, ptr %10, align 4
  switch i32 %32, label %129 [
    i32 0, label %33
  ]

33:                                               ; preds = %31
  br label %34

34:                                               ; preds = %33, %16
  br label %35

35:                                               ; preds = %34
  br label %36

36:                                               ; preds = %35
  br label %37

37:                                               ; preds = %36
  %38 = load ptr, ptr %8, align 8, !tbaa !9
  %39 = getelementptr inbounds nuw %struct.partialobject, ptr %38, i32 0, i32 1
  %40 = load ptr, ptr %39, align 8, !tbaa !143
  %41 = icmp ne ptr %40, null
  br i1 %41, label %42, label %57

42:                                               ; preds = %37
  call void @llvm.lifetime.start.p0(i64 4, ptr %11) #8
  %43 = load ptr, ptr %6, align 8, !tbaa !9
  %44 = load ptr, ptr %8, align 8, !tbaa !9
  %45 = getelementptr inbounds nuw %struct.partialobject, ptr %44, i32 0, i32 1
  %46 = load ptr, ptr %45, align 8, !tbaa !143
  %47 = load ptr, ptr %7, align 8, !tbaa !9
  %48 = call i32 %43(ptr noundef %46, ptr noundef %47)
  store i32 %48, ptr %11, align 4, !tbaa !15
  %49 = load i32, ptr %11, align 4, !tbaa !15
  %50 = icmp ne i32 %49, 0
  br i1 %50, label %51, label %53

51:                                               ; preds = %42
  %52 = load i32, ptr %11, align 4, !tbaa !15
  store i32 %52, ptr %4, align 4
  store i32 1, ptr %10, align 4
  br label %54

53:                                               ; preds = %42
  store i32 0, ptr %10, align 4
  br label %54

54:                                               ; preds = %53, %51
  call void @llvm.lifetime.end.p0(i64 4, ptr %11) #8
  %55 = load i32, ptr %10, align 4
  switch i32 %55, label %129 [
    i32 0, label %56
  ]

56:                                               ; preds = %54
  br label %57

57:                                               ; preds = %56, %37
  br label %58

58:                                               ; preds = %57
  br label %59

59:                                               ; preds = %58
  br label %60

60:                                               ; preds = %59
  %61 = load ptr, ptr %8, align 8, !tbaa !9
  %62 = getelementptr inbounds nuw %struct.partialobject, ptr %61, i32 0, i32 2
  %63 = load ptr, ptr %62, align 8, !tbaa !138
  %64 = icmp ne ptr %63, null
  br i1 %64, label %65, label %80

65:                                               ; preds = %60
  call void @llvm.lifetime.start.p0(i64 4, ptr %12) #8
  %66 = load ptr, ptr %6, align 8, !tbaa !9
  %67 = load ptr, ptr %8, align 8, !tbaa !9
  %68 = getelementptr inbounds nuw %struct.partialobject, ptr %67, i32 0, i32 2
  %69 = load ptr, ptr %68, align 8, !tbaa !138
  %70 = load ptr, ptr %7, align 8, !tbaa !9
  %71 = call i32 %66(ptr noundef %69, ptr noundef %70)
  store i32 %71, ptr %12, align 4, !tbaa !15
  %72 = load i32, ptr %12, align 4, !tbaa !15
  %73 = icmp ne i32 %72, 0
  br i1 %73, label %74, label %76

74:                                               ; preds = %65
  %75 = load i32, ptr %12, align 4, !tbaa !15
  store i32 %75, ptr %4, align 4
  store i32 1, ptr %10, align 4
  br label %77

76:                                               ; preds = %65
  store i32 0, ptr %10, align 4
  br label %77

77:                                               ; preds = %76, %74
  call void @llvm.lifetime.end.p0(i64 4, ptr %12) #8
  %78 = load i32, ptr %10, align 4
  switch i32 %78, label %129 [
    i32 0, label %79
  ]

79:                                               ; preds = %77
  br label %80

80:                                               ; preds = %79, %60
  br label %81

81:                                               ; preds = %80
  br label %82

82:                                               ; preds = %81
  br label %83

83:                                               ; preds = %82
  %84 = load ptr, ptr %8, align 8, !tbaa !9
  %85 = getelementptr inbounds nuw %struct.partialobject, ptr %84, i32 0, i32 3
  %86 = load ptr, ptr %85, align 8, !tbaa !141
  %87 = icmp ne ptr %86, null
  br i1 %87, label %88, label %103

88:                                               ; preds = %83
  call void @llvm.lifetime.start.p0(i64 4, ptr %13) #8
  %89 = load ptr, ptr %6, align 8, !tbaa !9
  %90 = load ptr, ptr %8, align 8, !tbaa !9
  %91 = getelementptr inbounds nuw %struct.partialobject, ptr %90, i32 0, i32 3
  %92 = load ptr, ptr %91, align 8, !tbaa !141
  %93 = load ptr, ptr %7, align 8, !tbaa !9
  %94 = call i32 %89(ptr noundef %92, ptr noundef %93)
  store i32 %94, ptr %13, align 4, !tbaa !15
  %95 = load i32, ptr %13, align 4, !tbaa !15
  %96 = icmp ne i32 %95, 0
  br i1 %96, label %97, label %99

97:                                               ; preds = %88
  %98 = load i32, ptr %13, align 4, !tbaa !15
  store i32 %98, ptr %4, align 4
  store i32 1, ptr %10, align 4
  br label %100

99:                                               ; preds = %88
  store i32 0, ptr %10, align 4
  br label %100

100:                                              ; preds = %99, %97
  call void @llvm.lifetime.end.p0(i64 4, ptr %13) #8
  %101 = load i32, ptr %10, align 4
  switch i32 %101, label %129 [
    i32 0, label %102
  ]

102:                                              ; preds = %100
  br label %103

103:                                              ; preds = %102, %83
  br label %104

104:                                              ; preds = %103
  br label %105

105:                                              ; preds = %104
  br label %106

106:                                              ; preds = %105
  %107 = load ptr, ptr %8, align 8, !tbaa !9
  %108 = getelementptr inbounds nuw %struct.partialobject, ptr %107, i32 0, i32 4
  %109 = load ptr, ptr %108, align 8, !tbaa !148
  %110 = icmp ne ptr %109, null
  br i1 %110, label %111, label %126

111:                                              ; preds = %106
  call void @llvm.lifetime.start.p0(i64 4, ptr %14) #8
  %112 = load ptr, ptr %6, align 8, !tbaa !9
  %113 = load ptr, ptr %8, align 8, !tbaa !9
  %114 = getelementptr inbounds nuw %struct.partialobject, ptr %113, i32 0, i32 4
  %115 = load ptr, ptr %114, align 8, !tbaa !148
  %116 = load ptr, ptr %7, align 8, !tbaa !9
  %117 = call i32 %112(ptr noundef %115, ptr noundef %116)
  store i32 %117, ptr %14, align 4, !tbaa !15
  %118 = load i32, ptr %14, align 4, !tbaa !15
  %119 = icmp ne i32 %118, 0
  br i1 %119, label %120, label %122

120:                                              ; preds = %111
  %121 = load i32, ptr %14, align 4, !tbaa !15
  store i32 %121, ptr %4, align 4
  store i32 1, ptr %10, align 4
  br label %123

122:                                              ; preds = %111
  store i32 0, ptr %10, align 4
  br label %123

123:                                              ; preds = %122, %120
  call void @llvm.lifetime.end.p0(i64 4, ptr %14) #8
  %124 = load i32, ptr %10, align 4
  switch i32 %124, label %129 [
    i32 0, label %125
  ]

125:                                              ; preds = %123
  br label %126

126:                                              ; preds = %125, %106
  br label %127

127:                                              ; preds = %126
  br label %128

128:                                              ; preds = %127
  store i32 0, ptr %4, align 4
  store i32 1, ptr %10, align 4
  br label %129

129:                                              ; preds = %128, %123, %100, %77, %54, %31
  call void @llvm.lifetime.end.p0(i64 8, ptr %8) #8
  %130 = load i32, ptr %4, align 4
  ret i32 %130
}