; Function Attrs: nounwind uwtable
define internal i32 @partial_traverse(ptr noundef readonly captures(none) %0, ptr noundef readonly captures(none) %1, ptr noundef %2) #0 {
  %4 = getelementptr i8, ptr %0, i64 8
  %.val61 = load ptr, ptr %4, align 8, !tbaa !113
  %.not = icmp eq ptr %.val61, null
  br i1 %.not, label %7, label %5

5:                                                ; preds = %3
  %6 = tail call i32 %1(ptr noundef nonnull %.val61, ptr noundef %2) #9
  %.not52 = icmp eq i32 %6, 0
  br i1 %.not52, label %7, label %28

7:                                                ; preds = %3, %5
  %8 = getelementptr inbounds nuw i8, ptr %0, i64 16
  %9 = load ptr, ptr %8, align 8, !tbaa !134
  %.not53 = icmp eq ptr %9, null
  br i1 %.not53, label %12, label %10

10:                                               ; preds = %7
  %11 = tail call i32 %1(ptr noundef nonnull %9, ptr noundef %2) #9
  %.not54 = icmp eq i32 %11, 0
  br i1 %.not54, label %12, label %28

12:                                               ; preds = %7, %10
  %13 = getelementptr inbounds nuw i8, ptr %0, i64 24
  %14 = load ptr, ptr %13, align 8, !tbaa !128
  %.not55 = icmp eq ptr %14, null
  br i1 %.not55, label %17, label %15

15:                                               ; preds = %12
  %16 = tail call i32 %1(ptr noundef nonnull %14, ptr noundef %2) #9
  %.not56 = icmp eq i32 %16, 0
  br i1 %.not56, label %17, label %28

17:                                               ; preds = %12, %15
  %18 = getelementptr inbounds nuw i8, ptr %0, i64 32
  %19 = load ptr, ptr %18, align 8, !tbaa !132
  %.not57 = icmp eq ptr %19, null
  br i1 %.not57, label %22, label %20

20:                                               ; preds = %17
  %21 = tail call i32 %1(ptr noundef nonnull %19, ptr noundef %2) #9
  %.not58 = icmp eq i32 %21, 0
  br i1 %.not58, label %22, label %28

22:                                               ; preds = %17, %20
  %23 = getelementptr inbounds nuw i8, ptr %0, i64 40
  %24 = load ptr, ptr %23, align 8, !tbaa !139
  %.not59 = icmp eq ptr %24, null
  br i1 %.not59, label %27, label %25

25:                                               ; preds = %22
  %26 = tail call i32 %1(ptr noundef nonnull %24, ptr noundef %2) #9
  %.not60 = icmp eq i32 %26, 0
  br i1 %.not60, label %27, label %28

27:                                               ; preds = %25, %22
  br label %28

28:                                               ; preds = %5, %10, %15, %20, %25, %27
  %.1 = phi i32 [ 0, %27 ], [ %26, %25 ], [ %21, %20 ], [ %16, %15 ], [ %11, %10 ], [ %6, %5 ]
  ret i32 %.1
}